; Function Attrs: mustprogress nounwind uwtable
define void @_ZN6icu_7511Formattable8setInt64El(ptr nocapture noundef nonnull align 8 dereferenceable(112) %this, i64 noundef %ll) local_unnamed_addr #0 align 2 {
entry:
  tail call void @_ZN6icu_7511Formattable7disposeEv(ptr noundef nonnull align 8 dereferenceable(112) %this)
  %fType = getelementptr inbounds i8, ptr %this, i64 40
  store i32 5, ptr %fType, align 8
  %fValue = getelementptr inbounds i8, ptr %this, i64 8
  store i64 %ll, ptr %fValue, align 8
  ret void
}